Certificate:
    Data:
        Version: 3 (0x2)
        Serial Number: 5 (0x5)
        Signature Algorithm: sha256WithRSAEncryption
        Issuer: C=US, ST=California, L=Mountain View, O=Test CA, CN=Test Root CA
        Validity
            Not Before: Jun 22 04:21:19 2026 GMT
            Not After : Sep 24 04:21:19 2028 GMT
        Subject: CN=test.example.org, O=Test, C=US
        Subject Public Key Info:
            Public Key Algorithm: id-ecPublicKey
                Public-Key: (256 bit)
                pub:
                    04:cd:c9:48:0e:74:b1:fa:23:f0:44:3b:c3:2d:8e:
                    d6:a7:39:8c:a2:9f:8c:fe:69:d0:f5:1e:24:9e:2b:
                    92:b7:07:5c:69:da:28:31:5e:a2:6c:ab:6d:7b:d6:
                    52:50:56:93:21:79:41:ca:d8:a1:4b:0e:2e:f2:d0:
                    be:22:b6:0c:88
                ASN1 OID: prime256v1
                NIST CURVE: P-256
        X509v3 extensions:
            X509v3 Basic Constraints: 
                CA:FALSE
            1.3.6.1.4.1.11129.2.1.22: 
                ..
            X509v3 Key Usage: 
                Digital Signature, Non Repudiation, Key Encipherment
            X509v3 Extended Key Usage: 
                TLS Web Server Authentication
            X509v3 Subject Key Identifier: 
                14:53:13:6D:17:C6:44:1D:6A:81:59:06:E9:FF:66:37:1C:AD:44:E4
            X509v3 Authority Key Identifier: 
                9B:26:0B:8A:98:A9:BB:1D:B9:1F:1C:E3:1A:40:33:ED:8E:17:88:AB
            X509v3 Subject Alternative Name: 
                DNS:test.example.org
    Signature Algorithm: sha256WithRSAEncryption
    Signature Value:
        32:e7:44:f6:0e:aa:41:2c:b7:ab:fb:2b:e4:31:eb:3f:a5:1a:
        b8:c0:f5:ee:82:dd:00:2a:69:d3:58:51:20:3a:7f:ee:6c:2f:
        a6:ea:a6:cb:23:ff:d3:ff:6b:7c:4e:c4:0c:4a:02:fc:3d:1a:
        61:68:7b:6a:40:c2:23:46:cc:fb:43:0e:9d:9e:e4:c3:5b:f7:
        20:5d:71:e8:02:bc:b3:e0:9f:d2:ff:e6:5c:5b:81:c8:f4:63:
        2b:2f:33:78:5f:59:f0:54:a4:15:bb:7c:f9:2a:a2:c8:8d:07:
        15:30:14:2f:2e:fd:f7:60:8c:09:2c:e6:8c:cc:4b:06:db:ab:
        1b:6b:4a:e0:ff:a4:2a:6f:df:c6:27:59:98:4e:04:e4:9f:6e:
        13:cc:e3:95:51:7d:df:0b:59:4f:e4:ba:ec:49:62:eb:0d:30:
        38:e8:9d:31:a9:67:22:9f:f2:c6:3b:d1:f3:c6:6f:fe:e2:72:
        2f:87:5e:bf:3c:43:80:4f:c6:f4:6d:2d:c0:2a:ff:2f:36:33:
        63:ad:b2:6a:e4:55:9a:58:49:b1:28:d2:f6:90:a4:19:df:c8:
        8d:4c:4f:60:d1:a2:b1:d3:56:d1:d3:53:92:82:c0:cf:a6:ca:
        96:c8:27:53:e2:02:c0:d1:2f:c0:e9:6a:3e:31:87:bb:cb:c9:
        a6:da:62:e3
-----BEGIN CERTIFICATE-----
MIIC6jCCAdKgAwIBAgIBBTANBgkqhkiG9w0BAQsFADBjMQswCQYDVQQGEwJVUzET
MBEGA1UECAwKQ2FsaWZvcm5pYTEWMBQGA1UEBwwNTW91bnRhaW4gVmlldzEQMA4G
A1UECgwHVGVzdCBDQTEVMBMGA1UEAwwMVGVzdCBSb290IENBMB4XDTI2MDYyMjA0
MjExOVoXDTI4MDkyNDA0MjExOVowNzEZMBcGA1UEAwwQdGVzdC5leGFtcGxlLm9y
ZzENMAsGA1UECgwEVGVzdDELMAkGA1UEBhMCVVMwWTATBgcqhkjOPQIBBggqhkjO
PQMBBwNCAATNyUgOdLH6I/BEO8MtjtanOYyin4z+adD1HiSeK5K3B1xp2igxXqJs
q2171lJQVpMheUHK2KFLDi7y0L4itgyIo4GfMIGcMAkGA1UdEwQCMAAwEAYKKwYB
BAHWeQIBFgQCBQAwCwYDVR0PBAQDAgXgMBMGA1UdJQQMMAoGCCsGAQUFBwMBMB0G
A1UdDgQWBBQUUxNtF8ZEHWqBWQbp/2Y3HK1E5DAfBgNVHSMEGDAWgBSbJguKmKm7
HbkfHOMaQDPtjheIqzAbBgNVHREEFDASghB0ZXN0LmV4YW1wbGUub3JnMA0GCSqG
SIb3DQEBCwUAA4IBAQAy50T2DqpBLLer+yvkMes/pRq4wPXugt0AKmnTWFEgOn/u
bC+m6qbLI//T/2t8TsQMSgL8PRphaHtqQMIjRsz7Qw6dnuTDW/cgXXHoAryz4J/S
/+ZcW4HI9GMrLzN4X1nwVKQVu3z5KqLIjQcVMBQvLv33YIwJLOaMzEsG26sba0rg
/6Qqb9/GJ1mYTgTkn24TzOOVUX3fC1lP5LrsSWLrDTA46J0xqWcin/LGO9Hzxm/+
4nIvh16/PEOAT8b0bS3AKv8vNjNjrbJq5FWaWEmxKNL2kKQZ38iNTE9g0aKx01bR
01OSgsDPpsqWyCdT4gLA0S/A6Wo+MYe7y8mm2mLj
-----END CERTIFICATE-----
