Certificate:
    Data:
        Version: 3 (0x2)
        Serial Number: 3 (0x3)
        Signature Algorithm: sha256WithRSAEncryption
        Issuer: C=US, ST=California, L=Mountain View, O=Test CA, CN=Test Root CA
        Validity
            Not Before: Jun  1 00:00:00 2019 GMT
            Not After : Aug 30 00:00:00 2019 GMT
        Subject: CN=test.example.org, O=Test, C=US
        Subject Public Key Info:
            Public Key Algorithm: id-ecPublicKey
                Public-Key: (256 bit)
                pub:
                    04:cd:c9:48:0e:74:b1:fa:23:f0:44:3b:c3:2d:8e:
                    d6:a7:39:8c:a2:9f:8c:fe:69:d0:f5:1e:24:9e:2b:
                    92:b7:07:5c:69:da:28:31:5e:a2:6c:ab:6d:7b:d6:
                    52:50:56:93:21:79:41:ca:d8:a1:4b:0e:2e:f2:d0:
                    be:22:b6:0c:88
                ASN1 OID: prime256v1
                NIST CURVE: P-256
        X509v3 extensions:
            X509v3 Subject Key Identifier: 
                14:53:13:6D:17:C6:44:1D:6A:81:59:06:E9:FF:66:37:1C:AD:44:E4
            X509v3 Authority Key Identifier: 
                9B:26:0B:8A:98:A9:BB:1D:B9:1F:1C:E3:1A:40:33:ED:8E:17:88:AB
    Signature Algorithm: sha256WithRSAEncryption
    Signature Value:
        54:0f:ed:d5:71:76:05:85:9e:ad:e2:ae:10:57:78:ba:a8:41:
        97:0d:e3:2f:bb:82:16:12:50:c7:77:19:08:86:69:2b:a8:93:
        32:c4:c2:36:96:8d:dd:50:ed:48:48:c9:90:81:18:15:a2:15:
        88:f8:bf:8c:f2:c9:cd:ac:17:91:6e:0f:83:15:42:f0:e4:f3:
        b1:56:28:1d:32:d1:70:0c:ab:8d:eb:4f:30:24:c5:7c:eb:18:
        c6:57:3a:60:a5:1e:c4:71:e8:97:70:84:51:6a:11:c5:ae:f5:
        88:5a:b2:60:ae:b6:34:3d:e8:9c:48:a5:77:75:c3:3a:f7:d9:
        6e:db:6e:e7:80:28:59:2d:d3:8e:4d:09:11:8e:a9:7b:c2:4c:
        30:8d:a3:1e:3e:ca:84:bd:e6:64:c5:bd:c3:bd:b6:6a:c1:b9:
        fe:77:46:52:28:a4:36:c0:ed:d8:73:dd:44:ea:06:fd:1e:f8:
        0f:4f:78:33:df:6c:a5:a3:40:b8:fd:cc:7b:b1:88:1d:c1:57:
        a1:c1:68:4f:1b:65:28:cd:4d:f9:0e:a7:c9:8b:9a:38:58:ce:
        c8:90:7f:46:c9:17:9a:71:84:a8:8e:76:94:c5:c7:d3:24:a7:
        e4:ae:3c:a6:4c:84:a9:33:96:94:57:2a:00:4d:11:04:c1:af:
        c7:66:54:0a
-----BEGIN CERTIFICATE-----
MIICjDCCAXSgAwIBAgIBAzANBgkqhkiG9w0BAQsFADBjMQswCQYDVQQGEwJVUzET
MBEGA1UECAwKQ2FsaWZvcm5pYTEWMBQGA1UEBwwNTW91bnRhaW4gVmlldzEQMA4G
A1UECgwHVGVzdCBDQTEVMBMGA1UEAwwMVGVzdCBSb290IENBMB4XDTE5MDYwMTAw
MDAwMFoXDTE5MDgzMDAwMDAwMFowNzEZMBcGA1UEAwwQdGVzdC5leGFtcGxlLm9y
ZzENMAsGA1UECgwEVGVzdDELMAkGA1UEBhMCVVMwWTATBgcqhkjOPQIBBggqhkjO
PQMBBwNCAATNyUgOdLH6I/BEO8MtjtanOYyin4z+adD1HiSeK5K3B1xp2igxXqJs
q2171lJQVpMheUHK2KFLDi7y0L4itgyIo0IwQDAdBgNVHQ4EFgQUFFMTbRfGRB1q
gVkG6f9mNxytROQwHwYDVR0jBBgwFoAUmyYLipipux25HxzjGkAz7Y4XiKswDQYJ
KoZIhvcNAQELBQADggEBAFQP7dVxdgWFnq3irhBXeLqoQZcN4y+7ghYSUMd3GQiG
aSuokzLEwjaWjd1Q7UhIyZCBGBWiFYj4v4zyyc2sF5FuD4MVQvDk87FWKB0y0XAM
q43rTzAkxXzrGMZXOmClHsRx6JdwhFFqEcWu9YhasmCutjQ96JxIpXd1wzr32W7b
bueAKFkt045NCRGOqXvCTDCNox4+yoS95mTFvcO9tmrBuf53RlIopDbA7dhz3UTq
Bv0e+A9PeDPfbKWjQLj9zHuxiB3BV6HBaE8bZSjNTfkOp8mLmjhYzsiQf0bJF5px
hKiOdpTFx9Mkp+SuPKZMhKkzlpRXKgBNEQTBr8dmVAo=
-----END CERTIFICATE-----
