Certificate:
    Data:
        Version: 3 (0x2)
        Serial Number: 4 (0x4)
        Signature Algorithm: sha256WithRSAEncryption
        Issuer: C=US, ST=California, L=Mountain View, O=Test CA, CN=Test Root CA
        Validity
            Not Before: May  1 00:00:00 2019 GMT
            Not After : Jul 31 00:00:00 2019 GMT
        Subject: CN=test.example.org, O=Test, C=US
        Subject Public Key Info:
            Public Key Algorithm: id-ecPublicKey
                Public-Key: (256 bit)
                pub:
                    04:cd:c9:48:0e:74:b1:fa:23:f0:44:3b:c3:2d:8e:
                    d6:a7:39:8c:a2:9f:8c:fe:69:d0:f5:1e:24:9e:2b:
                    92:b7:07:5c:69:da:28:31:5e:a2:6c:ab:6d:7b:d6:
                    52:50:56:93:21:79:41:ca:d8:a1:4b:0e:2e:f2:d0:
                    be:22:b6:0c:88
                ASN1 OID: prime256v1
                NIST CURVE: P-256
        X509v3 extensions:
            X509v3 Basic Constraints: 
                CA:FALSE
            1.3.6.1.4.1.11129.2.1.22: 
                ..
            X509v3 Key Usage: 
                Digital Signature, Non Repudiation, Key Encipherment
            X509v3 Extended Key Usage: 
                TLS Web Server Authentication
            X509v3 Subject Key Identifier: 
                14:53:13:6D:17:C6:44:1D:6A:81:59:06:E9:FF:66:37:1C:AD:44:E4
            X509v3 Authority Key Identifier: 
                9B:26:0B:8A:98:A9:BB:1D:B9:1F:1C:E3:1A:40:33:ED:8E:17:88:AB
            X509v3 Subject Alternative Name: 
                DNS:test.example.org
    Signature Algorithm: sha256WithRSAEncryption
    Signature Value:
        5e:6a:2f:3b:d4:9f:a9:a0:c6:36:f3:29:53:dc:18:a5:84:61:
        b8:3e:cc:b6:39:4a:0f:9b:19:61:2e:c3:46:63:51:f1:52:49:
        1f:3e:d4:c5:ef:01:52:79:18:c1:38:ef:45:39:18:9f:0f:36:
        3a:a5:57:f7:f9:03:0b:7a:2f:df:7a:ca:8b:d8:57:23:a5:3d:
        30:b8:df:43:fd:ad:90:f6:71:44:8c:b6:7c:60:ce:a0:5d:b3:
        05:47:d9:c5:a1:21:2d:6c:35:69:14:f1:da:8b:98:9c:bd:1c:
        11:b3:a6:80:ab:78:01:be:f7:d9:e8:cb:60:e8:f4:10:ae:34:
        cf:ea:f2:52:c8:74:96:4f:a6:b9:35:df:96:0c:a3:0d:83:8b:
        58:15:89:6b:c4:a5:41:c8:82:51:58:31:58:7a:61:1a:70:f6:
        35:91:c6:19:61:3f:91:84:dd:41:16:1e:fc:e6:ff:15:21:f8:
        f6:c8:e9:9a:a7:70:9e:89:e7:5c:d2:bf:48:b5:0d:f4:41:a1:
        7b:4b:7c:21:9f:fb:25:7b:bf:8f:a4:96:73:7c:8c:c8:88:f0:
        e9:dd:46:80:be:29:8b:30:a8:f4:e0:90:4b:85:d6:60:a1:ca:
        f6:c2:74:e6:1e:d9:54:3e:0a:53:68:f3:cd:ea:c7:28:b3:71:
        44:3d:d5:d8
-----BEGIN CERTIFICATE-----
MIIC6jCCAdKgAwIBAgIBBDANBgkqhkiG9w0BAQsFADBjMQswCQYDVQQGEwJVUzET
MBEGA1UECAwKQ2FsaWZvcm5pYTEWMBQGA1UEBwwNTW91bnRhaW4gVmlldzEQMA4G
A1UECgwHVGVzdCBDQTEVMBMGA1UEAwwMVGVzdCBSb290IENBMB4XDTE5MDUwMTAw
MDAwMFoXDTE5MDczMTAwMDAwMFowNzEZMBcGA1UEAwwQdGVzdC5leGFtcGxlLm9y
ZzENMAsGA1UECgwEVGVzdDELMAkGA1UEBhMCVVMwWTATBgcqhkjOPQIBBggqhkjO
PQMBBwNCAATNyUgOdLH6I/BEO8MtjtanOYyin4z+adD1HiSeK5K3B1xp2igxXqJs
q2171lJQVpMheUHK2KFLDi7y0L4itgyIo4GfMIGcMAkGA1UdEwQCMAAwEAYKKwYB
BAHWeQIBFgQCBQAwCwYDVR0PBAQDAgXgMBMGA1UdJQQMMAoGCCsGAQUFBwMBMB0G
A1UdDgQWBBQUUxNtF8ZEHWqBWQbp/2Y3HK1E5DAfBgNVHSMEGDAWgBSbJguKmKm7
HbkfHOMaQDPtjheIqzAbBgNVHREEFDASghB0ZXN0LmV4YW1wbGUub3JnMA0GCSqG
SIb3DQEBCwUAA4IBAQBeai871J+poMY28ylT3BilhGG4Psy2OUoPmxlhLsNGY1Hx
UkkfPtTF7wFSeRjBOO9FORifDzY6pVf3+QMLei/fesqL2FcjpT0wuN9D/a2Q9nFE
jLZ8YM6gXbMFR9nFoSEtbDVpFPHai5icvRwRs6aAq3gBvvfZ6Mtg6PQQrjTP6vJS
yHSWT6a5Nd+WDKMNg4tYFYlrxKVByIJRWDFYemEacPY1kcYZYT+RhN1BFh785v8V
Ifj2yOmap3Ceiedc0r9ItQ30QaF7S3whn/sle7+PpJZzfIzIiPDp3UaAvimLMKj0
4JBLhdZgocr2wnTmHtlUPgpTaPPN6scos3FEPdXY
-----END CERTIFICATE-----
