Certificate:
    Data:
        Version: 3 (0x2)
        Serial Number: 1 (0x1)
        Signature Algorithm: sha256WithRSAEncryption
        Issuer: C=US, ST=California, L=Mountain View, O=Test CA, CN=Test Root CA
        Validity
            Not Before: Jun  1 00:00:00 2019 GMT
            Not After : Aug 30 00:00:00 2019 GMT
        Subject: CN=test.example.org, O=Test, C=US
        Subject Public Key Info:
            Public Key Algorithm: id-ecPublicKey
                Public-Key: (256 bit)
                pub:
                    04:cd:c9:48:0e:74:b1:fa:23:f0:44:3b:c3:2d:8e:
                    d6:a7:39:8c:a2:9f:8c:fe:69:d0:f5:1e:24:9e:2b:
                    92:b7:07:5c:69:da:28:31:5e:a2:6c:ab:6d:7b:d6:
                    52:50:56:93:21:79:41:ca:d8:a1:4b:0e:2e:f2:d0:
                    be:22:b6:0c:88
                ASN1 OID: prime256v1
                NIST CURVE: P-256
        X509v3 extensions:
            X509v3 Basic Constraints: 
                CA:FALSE
            1.3.6.1.4.1.11129.2.1.22: 
                ..
            X509v3 Key Usage: 
                Digital Signature, Non Repudiation, Key Encipherment
            X509v3 Extended Key Usage: 
                TLS Web Server Authentication
            X509v3 Subject Key Identifier: 
                14:53:13:6D:17:C6:44:1D:6A:81:59:06:E9:FF:66:37:1C:AD:44:E4
            X509v3 Authority Key Identifier: 
                9B:26:0B:8A:98:A9:BB:1D:B9:1F:1C:E3:1A:40:33:ED:8E:17:88:AB
            X509v3 Subject Alternative Name: 
                DNS:test.example.org
    Signature Algorithm: sha256WithRSAEncryption
    Signature Value:
        18:04:35:6f:9e:d5:96:91:38:75:39:d4:a4:2d:c4:a5:68:01:
        cf:d0:81:e2:84:74:c5:f9:bd:1f:43:e8:18:d1:fc:dd:36:da:
        b0:a1:4b:14:3c:65:71:6c:07:15:4c:25:3c:70:41:de:46:3b:
        a0:4e:b2:d0:72:de:e6:ae:52:6f:fa:31:97:be:fa:59:df:8e:
        05:c3:68:84:9f:d4:60:3d:e7:89:76:2b:64:04:05:ef:c7:2e:
        b6:4b:dd:a4:b3:90:3f:0a:e5:6b:1f:52:8c:e5:66:1a:30:64:
        e3:d3:0c:bd:3b:45:2f:9a:21:2d:7c:e4:9d:82:1c:8f:8b:e2:
        32:af:bd:16:6d:e5:73:d8:33:86:8d:c5:38:c5:64:8c:3a:b9:
        d0:03:e9:fe:29:91:e4:7b:eb:45:17:8b:47:d6:f3:5d:40:79:
        91:73:50:0a:88:5c:f2:24:01:9a:ee:b6:be:d7:ff:5a:13:8a:
        6d:d0:60:24:6c:ea:0c:b5:39:7b:f0:d9:0f:91:b7:99:65:16:
        4d:17:34:d8:4b:15:c7:12:82:ba:f4:de:f7:bc:1c:d6:59:c3:
        f4:97:c3:06:0f:ff:90:fd:c8:4d:1e:6e:3f:cc:66:e6:1b:d3:
        d9:6b:92:43:31:d9:9d:25:1e:f2:d9:84:a5:ab:3e:4d:93:5d:
        a2:ee:df:2e
-----BEGIN CERTIFICATE-----
MIIC6jCCAdKgAwIBAgIBATANBgkqhkiG9w0BAQsFADBjMQswCQYDVQQGEwJVUzET
MBEGA1UECAwKQ2FsaWZvcm5pYTEWMBQGA1UEBwwNTW91bnRhaW4gVmlldzEQMA4G
A1UECgwHVGVzdCBDQTEVMBMGA1UEAwwMVGVzdCBSb290IENBMB4XDTE5MDYwMTAw
MDAwMFoXDTE5MDgzMDAwMDAwMFowNzEZMBcGA1UEAwwQdGVzdC5leGFtcGxlLm9y
ZzENMAsGA1UECgwEVGVzdDELMAkGA1UEBhMCVVMwWTATBgcqhkjOPQIBBggqhkjO
PQMBBwNCAATNyUgOdLH6I/BEO8MtjtanOYyin4z+adD1HiSeK5K3B1xp2igxXqJs
q2171lJQVpMheUHK2KFLDi7y0L4itgyIo4GfMIGcMAkGA1UdEwQCMAAwEAYKKwYB
BAHWeQIBFgQCBQAwCwYDVR0PBAQDAgXgMBMGA1UdJQQMMAoGCCsGAQUFBwMBMB0G
A1UdDgQWBBQUUxNtF8ZEHWqBWQbp/2Y3HK1E5DAfBgNVHSMEGDAWgBSbJguKmKm7
HbkfHOMaQDPtjheIqzAbBgNVHREEFDASghB0ZXN0LmV4YW1wbGUub3JnMA0GCSqG
SIb3DQEBCwUAA4IBAQAYBDVvntWWkTh1OdSkLcSlaAHP0IHihHTF+b0fQ+gY0fzd
NtqwoUsUPGVxbAcVTCU8cEHeRjugTrLQct7mrlJv+jGXvvpZ344Fw2iEn9RgPeeJ
ditkBAXvxy62S92ks5A/CuVrH1KM5WYaMGTj0wy9O0UvmiEtfOSdghyPi+Iyr70W
beVz2DOGjcU4xWSMOrnQA+n+KZHke+tFF4tH1vNdQHmRc1AKiFzyJAGa7ra+1/9a
E4pt0GAkbOoMtTl78NkPkbeZZRZNFzTYSxXHEoK69N73vBzWWcP0l8MGD/+Q/chN
Hm4/zGbmG9PZa5JDMdmdJR7y2YSlqz5Nk12i7t8u
-----END CERTIFICATE-----
