Certificate:
    Data:
        Version: 3 (0x2)
        Serial Number: 2 (0x2)
        Signature Algorithm: sha256WithRSAEncryption
        Issuer: C=US, ST=California, L=Mountain View, O=Test CA, CN=Test Root CA
        Validity
            Not Before: Jun  1 00:00:00 2019 GMT
            Not After : Aug 30 00:00:00 2019 GMT
        Subject: CN=google-com.example.org, O=Test, C=US
        Subject Public Key Info:
            Public Key Algorithm: id-ecPublicKey
                Public-Key: (256 bit)
                pub:
                    04:cd:c9:48:0e:74:b1:fa:23:f0:44:3b:c3:2d:8e:
                    d6:a7:39:8c:a2:9f:8c:fe:69:d0:f5:1e:24:9e:2b:
                    92:b7:07:5c:69:da:28:31:5e:a2:6c:ab:6d:7b:d6:
                    52:50:56:93:21:79:41:ca:d8:a1:4b:0e:2e:f2:d0:
                    be:22:b6:0c:88
                ASN1 OID: prime256v1
                NIST CURVE: P-256
        X509v3 extensions:
            X509v3 Basic Constraints: 
                CA:FALSE
            1.3.6.1.4.1.11129.2.1.22: 
                ..
            X509v3 Key Usage: 
                Digital Signature, Non Repudiation, Key Encipherment
            X509v3 Extended Key Usage: 
                TLS Web Server Authentication
            X509v3 Subject Key Identifier: 
                14:53:13:6D:17:C6:44:1D:6A:81:59:06:E9:FF:66:37:1C:AD:44:E4
            X509v3 Authority Key Identifier: 
                9B:26:0B:8A:98:A9:BB:1D:B9:1F:1C:E3:1A:40:33:ED:8E:17:88:AB
            X509v3 Subject Alternative Name: 
                DNS:google-com.example.org
    Signature Algorithm: sha256WithRSAEncryption
    Signature Value:
        2d:0c:6c:3d:0e:c4:19:e4:89:03:33:b2:79:2c:cb:7d:b2:ea:
        2d:a4:c9:02:f6:93:e7:97:23:74:7d:3f:07:df:5d:60:2b:df:
        ba:48:b1:b4:e1:59:14:05:9e:19:f1:a4:52:cd:99:03:50:cd:
        04:ce:09:59:08:00:3c:73:b7:48:a0:f8:7b:84:0b:88:58:e2:
        cd:fa:ed:aa:ee:11:b0:7b:c2:a6:4c:59:1e:6b:6b:82:9c:c5:
        ba:ef:1e:5f:2f:ce:65:65:cd:c1:47:14:14:08:e9:f7:60:c9:
        4e:2b:25:21:e1:0c:3b:61:0e:c5:27:0f:61:b1:b9:e6:de:9c:
        0c:da:9d:15:0e:c0:f5:f5:20:62:4b:35:3b:2f:6f:87:d1:c1:
        c2:88:d0:48:4a:dc:61:2f:67:ae:f4:37:06:27:14:06:1c:ed:
        c4:51:95:4b:9e:b5:60:d7:48:2f:ac:bc:d6:c7:cd:f7:1a:85:
        9f:73:69:34:3d:e3:ee:0c:87:bc:b1:63:1f:c2:20:ff:f7:9a:
        a2:f6:7a:77:9b:c9:c5:3c:e0:c4:19:d3:ec:68:20:52:f0:8c:
        01:fd:ef:52:34:12:7f:c8:fe:91:11:21:f7:d8:a0:02:94:f6:
        41:bc:7b:22:0d:8b:75:04:16:42:a2:95:29:54:8c:dd:33:ee:
        59:82:e9:cd
-----BEGIN CERTIFICATE-----
MIIC9jCCAd6gAwIBAgIBAjANBgkqhkiG9w0BAQsFADBjMQswCQYDVQQGEwJVUzET
MBEGA1UECAwKQ2FsaWZvcm5pYTEWMBQGA1UEBwwNTW91bnRhaW4gVmlldzEQMA4G
A1UECgwHVGVzdCBDQTEVMBMGA1UEAwwMVGVzdCBSb290IENBMB4XDTE5MDYwMTAw
MDAwMFoXDTE5MDgzMDAwMDAwMFowPTEfMB0GA1UEAwwWZ29vZ2xlLWNvbS5leGFt
cGxlLm9yZzENMAsGA1UECgwEVGVzdDELMAkGA1UEBhMCVVMwWTATBgcqhkjOPQIB
BggqhkjOPQMBBwNCAATNyUgOdLH6I/BEO8MtjtanOYyin4z+adD1HiSeK5K3B1xp
2igxXqJsq2171lJQVpMheUHK2KFLDi7y0L4itgyIo4GlMIGiMAkGA1UdEwQCMAAw
EAYKKwYBBAHWeQIBFgQCBQAwCwYDVR0PBAQDAgXgMBMGA1UdJQQMMAoGCCsGAQUF
BwMBMB0GA1UdDgQWBBQUUxNtF8ZEHWqBWQbp/2Y3HK1E5DAfBgNVHSMEGDAWgBSb
JguKmKm7HbkfHOMaQDPtjheIqzAhBgNVHREEGjAYghZnb29nbGUtY29tLmV4YW1w
bGUub3JnMA0GCSqGSIb3DQEBCwUAA4IBAQAtDGw9DsQZ5IkDM7J5LMt9suotpMkC
9pPnlyN0fT8H311gK9+6SLG04VkUBZ4Z8aRSzZkDUM0EzglZCAA8c7dIoPh7hAuI
WOLN+u2q7hGwe8KmTFkea2uCnMW67x5fL85lZc3BRxQUCOn3YMlOKyUh4Qw7YQ7F
Jw9hsbnm3pwM2p0VDsD19SBiSzU7L2+H0cHCiNBIStxhL2eu9DcGJxQGHO3EUZVL
nrVg10gvrLzWx833GoWfc2k0PePuDIe8sWMfwiD/95qi9np3m8nFPODEGdPsaCBS
8IwB/e9SNBJ/yP6RESH32KAClPZBvHsiDYt1BBZCopUpVIzdM+5ZgunN
-----END CERTIFICATE-----
