Certificate:
    Data:
        Version: 3 (0x2)
        Serial Number: 6 (0x6)
        Signature Algorithm: sha256WithRSAEncryption
        Issuer: C=US, ST=California, L=Mountain View, O=Test CA, CN=Test Root CA
        Validity
            Not Before: Jun  1 00:00:00 2019 GMT
            Not After : Aug 30 00:00:00 2019 GMT
        Subject: CN=test.example.org, O=Test, C=US
        Subject Public Key Info:
            Public Key Algorithm: id-ecPublicKey
                Public-Key: (384 bit)
                pub:
                    04:e8:1d:5f:43:65:44:17:88:e5:7d:bb:4d:1f:db:
                    d1:76:0c:36:c5:4e:1d:71:a0:62:58:59:40:35:25:
                    ce:db:77:3f:57:ff:02:cc:65:d7:2f:0c:3c:74:9e:
                    92:65:e2:00:30:f7:1e:d2:3b:f4:21:65:ca:1c:1a:
                    63:8f:bd:7e:0b:8e:65:af:47:ba:84:03:3e:f6:bd:
                    82:b0:74:4a:82:ad:e8:a2:c1:d9:96:2f:05:bc:16:
                    e2:1e:4f:62:c5:ff:63
                ASN1 OID: secp384r1
                NIST CURVE: P-384
        X509v3 extensions:
            X509v3 Basic Constraints: 
                CA:FALSE
            1.3.6.1.4.1.11129.2.1.22: 
                ..
            X509v3 Key Usage: 
                Digital Signature, Non Repudiation, Key Encipherment
            X509v3 Extended Key Usage: 
                TLS Web Server Authentication
            X509v3 Subject Key Identifier: 
                D8:87:69:58:F7:78:C2:F5:DD:A3:8C:E2:28:D6:41:8D:3D:80:B0:F8
            X509v3 Authority Key Identifier: 
                9B:26:0B:8A:98:A9:BB:1D:B9:1F:1C:E3:1A:40:33:ED:8E:17:88:AB
            X509v3 Subject Alternative Name: 
                DNS:test.example.org
    Signature Algorithm: sha256WithRSAEncryption
    Signature Value:
        7b:ee:da:d8:89:52:00:b7:bd:e8:df:0c:36:f6:2c:b7:bf:26:
        42:66:54:5e:9a:f7:d5:28:6d:05:e8:a1:a3:06:a1:a3:b3:8e:
        6e:4e:7f:ea:ca:ff:f2:c0:84:a7:c5:96:e2:19:81:27:e2:35:
        19:d2:37:2d:08:b9:b4:6b:3b:9c:03:06:e0:03:21:c1:c6:80:
        6c:ca:a3:a6:95:be:6b:ac:4a:29:74:71:98:bc:72:d0:c0:05:
        6f:9b:ce:4b:43:ef:fe:65:3c:99:3e:98:65:81:72:72:93:96:
        35:3c:46:ff:0d:f2:1e:3f:cb:c6:8e:59:7b:89:65:b8:9b:dd:
        f8:a6:cd:02:67:76:9d:c4:3c:b0:97:0f:12:11:ac:26:36:cf:
        e1:5d:74:02:62:7d:ab:e4:8d:e6:b7:35:00:a5:99:a3:9c:62:
        d8:b2:58:ad:f6:bd:b2:6b:9c:4d:eb:32:d5:bd:6f:f1:87:ee:
        07:4e:58:54:0d:cf:48:17:3d:85:16:a6:8a:28:4a:68:1c:8a:
        1e:e7:66:bd:e3:f4:54:8d:b7:aa:0a:df:15:24:0e:8e:fc:62:
        18:9e:49:19:01:0d:51:ad:55:e1:44:16:c4:a4:67:a1:f3:ed:
        df:28:a1:7d:5e:6f:ed:79:f7:98:1a:ad:49:d8:90:6c:18:05:
        fa:ed:25:22
-----BEGIN CERTIFICATE-----
MIIDBzCCAe+gAwIBAgIBBjANBgkqhkiG9w0BAQsFADBjMQswCQYDVQQGEwJVUzET
MBEGA1UECAwKQ2FsaWZvcm5pYTEWMBQGA1UEBwwNTW91bnRhaW4gVmlldzEQMA4G
A1UECgwHVGVzdCBDQTEVMBMGA1UEAwwMVGVzdCBSb290IENBMB4XDTE5MDYwMTAw
MDAwMFoXDTE5MDgzMDAwMDAwMFowNzEZMBcGA1UEAwwQdGVzdC5leGFtcGxlLm9y
ZzENMAsGA1UECgwEVGVzdDELMAkGA1UEBhMCVVMwdjAQBgcqhkjOPQIBBgUrgQQA
IgNiAAToHV9DZUQXiOV9u00f29F2DDbFTh1xoGJYWUA1Jc7bdz9X/wLMZdcvDDx0
npJl4gAw9x7SO/QhZcocGmOPvX4LjmWvR7qEAz72vYKwdEqCreiiwdmWLwW8FuIe
T2LF/2OjgZ8wgZwwCQYDVR0TBAIwADAQBgorBgEEAdZ5AgEWBAIFADALBgNVHQ8E
BAMCBeAwEwYDVR0lBAwwCgYIKwYBBQUHAwEwHQYDVR0OBBYEFNiHaVj3eML13aOM
4ijWQY09gLD4MB8GA1UdIwQYMBaAFJsmC4qYqbsduR8c4xpAM+2OF4irMBsGA1Ud
EQQUMBKCEHRlc3QuZXhhbXBsZS5vcmcwDQYJKoZIhvcNAQELBQADggEBAHvu2tiJ
UgC3vejfDDb2LLe/JkJmVF6a99UobQXooaMGoaOzjm5Of+rK//LAhKfFluIZgSfi
NRnSNy0IubRrO5wDBuADIcHGgGzKo6aVvmusSil0cZi8ctDABW+bzktD7/5lPJk+
mGWBcnKTljU8Rv8N8h4/y8aOWXuJZbib3fimzQJndp3EPLCXDxIRrCY2z+FddAJi
favkjea3NQClmaOcYtiyWK32vbJrnE3rMtW9b/GH7gdOWFQNz0gXPYUWpoooSmgc
ih7nZr3j9FSNt6oK3xUkDo78YhieSRkBDVGtVeFEFsSkZ6Hz7d8ooX1eb+1595ga
rUnYkGwYBfrtJSI=
-----END CERTIFICATE-----
